; ModuleID = 'bench/openjdk/original/NativeThread.ll'
source_filename = "bench/openjdk/original/NativeThread.ll"
target datalayout = "e-m:e-p270:32:32-p271:32:32-p272:64:64-i64:64-i128:128-f80:128-n8:16:32:64-S128"
target triple = "x86_64-pc-linux-gnu"

%struct.sigaction = type { %union.anon, %struct.__sigset_t, i32, ptr }
%union.anon = type { ptr }
%struct.__sigset_t = type { [16 x i64] }

@.str = private unnamed_addr constant [10 x i8] c"sigaction\00", align 1
@.str.1 = private unnamed_addr constant [21 x i8] c"Thread signal failed\00", align 1

; Function Attrs: nounwind uwtable
define void @Java_sun_nio_ch_NativeThread_init(ptr noundef %0, ptr nocapture noundef readnone %1) local_unnamed_addr #0 {
  %3 = alloca %struct.sigaction, align 8
  %4 = alloca %struct.sigaction, align 8
  store ptr @nullHandler, ptr %3, align 8
  %5 = getelementptr inbounds i8, ptr %3, i64 136
  store i32 0, ptr %5, align 8
  %6 = getelementptr inbounds i8, ptr %3, i64 8
  %7 = call i32 @sigemptyset(ptr noundef nonnull %6) #6
  %8 = call i32 @__libc_current_sigrtmax() #6
  %9 = add nsw i32 %8, -2
  %10 = call i32 @sigaction(i32 noundef %9, ptr noundef nonnull %3, ptr noundef nonnull %4) #6
  %11 = icmp slt i32 %10, 0
  br i1 %11, label %12, label %13

12:                                               ; preds = %2
  call void @JNU_ThrowIOExceptionWithLastError(ptr noundef %0, ptr noundef nonnull @.str) #6
  br label %13

13:                                               ; preds = %12, %2
  ret void
}

; Function Attrs: mustprogress nofree norecurse nosync nounwind willreturn memory(none) uwtable
define internal void @nullHandler(i32 %0) #1 {
  ret void
}

; Function Attrs: nounwind
declare i32 @sigemptyset(ptr noundef) local_unnamed_addr #2

; Function Attrs: nounwind
declare i32 @sigaction(i32 noundef, ptr noundef, ptr noundef) local_unnamed_addr #2

; Function Attrs: nounwind
declare i32 @__libc_current_sigrtmax() local_unnamed_addr #2

declare void @JNU_ThrowIOExceptionWithLastError(ptr noundef, ptr noundef) local_unnamed_addr #3

; Function Attrs: mustprogress nofree nosync nounwind willreturn memory(none) uwtable
define i64 @Java_sun_nio_ch_NativeThread_current0(ptr nocapture noundef readnone %0, ptr nocapture noundef readnone %1) local_unnamed_addr #4 {
  %3 = tail call i64 @pthread_self() #7
  ret i64 %3
}

; Function Attrs: mustprogress nofree nosync nounwind willreturn memory(none)
declare i64 @pthread_self() local_unnamed_addr #5

; Function Attrs: nounwind uwtable
define void @Java_sun_nio_ch_NativeThread_signal0(ptr noundef %0, ptr nocapture noundef readnone %1, i64 noundef %2) local_unnamed_addr #0 {
  %4 = tail call i32 @__libc_current_sigrtmax() #6
  %5 = add nsw i32 %4, -2
  %6 = tail call i32 @pthread_kill(i64 noundef %2, i32 noundef %5) #6
  %.not = icmp eq i32 %6, 0
  br i1 %.not, label %8, label %7

7:                                                ; preds = %3
  tail call void @JNU_ThrowIOExceptionWithLastError(ptr noundef %0, ptr noundef nonnull @.str.1) #6
  br label %8

8:                                                ; preds = %7, %3
  ret void
}

; Function Attrs: nounwind
declare i32 @pthread_kill(i64 noundef, i32 noundef) local_unnamed_addr #2


!llvm.module.flags = !{!0, !1, !2, !3, !4, !5}

!0 = !{i32 7, !"Dwarf Version", i32 5}
!1 = !{i32 2, !"Debug Info Version", i32 3}
!2 = !{i32 1, !"wchar_size", i32 4}
!3 = !{i32 8, !"PIC Level", i32 2}
!4 = !{i32 7, !"uwtable", i32 2}
!5 = !{i32 7, !"frame-pointer", i32 2}
